target datalayout = "e-m:e-p270:32:32-p271:32:32-p272:64:64-i64:64-i128:128-f80:128-n8:16:32:64-S128"
target triple = "x86_64-unknown-linux-gnu"

%struct.anon = type { i8, i8 }
%"union.Assimp::MDL::HalfLife::AnimValue_HL1" = type { i16 }

; Function Attrs: mustprogress nounwind uwtable
define hidden void @_ZN6Assimp3MDL8HalfLife12HL1MDLLoader18extract_anim_valueEPKNS1_13AnimValue_HL1EifRf(ptr noundef nonnull align 8 dereferenceable(256) %this, ptr noundef %panimvalue, i32 noundef %frame, float noundef %bone_scale, ptr noundef nonnull align 4 dereferenceable(4) %value) #0 align 2 {
entry:
  %this.addr = alloca ptr, align 8
  %panimvalue.addr = alloca ptr, align 8
  %frame.addr = alloca i32, align 4
  %bone_scale.addr = alloca float, align 4
  %value.addr = alloca ptr, align 8
  %k = alloca i32, align 4
  store ptr %this, ptr %this.addr, align 8
  store ptr %panimvalue, ptr %panimvalue.addr, align 8
  store i32 %frame, ptr %frame.addr, align 4
  store float %bone_scale, ptr %bone_scale.addr, align 4
  store ptr %value, ptr %value.addr, align 8
  %0 = load i32, ptr %frame.addr, align 4
  store i32 %0, ptr %k, align 4
  br label %while.cond

while.cond:                                       ; preds = %while.body, %entry
  %1 = load ptr, ptr %panimvalue.addr, align 8
  %total = getelementptr inbounds %struct.anon, ptr %1, i32 0, i32 1
  %2 = load i8, ptr %total, align 1
  %conv = zext i8 %2 to i32
  %3 = load i32, ptr %k, align 4
  %cmp = icmp sle i32 %conv, %3
  br i1 %cmp, label %while.body, label %while.end

while.body:                                       ; preds = %while.cond
  %4 = load ptr, ptr %panimvalue.addr, align 8
  %total2 = getelementptr inbounds %struct.anon, ptr %4, i32 0, i32 1
  %5 = load i8, ptr %total2, align 1
  %conv3 = zext i8 %5 to i32
  %6 = load i32, ptr %k, align 4
  %sub = sub nsw i32 %6, %conv3
  store i32 %sub, ptr %k, align 4
  %7 = load ptr, ptr %panimvalue.addr, align 8
  %valid = getelementptr inbounds %struct.anon, ptr %7, i32 0, i32 0
  %8 = load i8, ptr %valid, align 1
  %conv4 = zext i8 %8 to i32
  %add = add nsw i32 %conv4, 1
  %9 = load ptr, ptr %panimvalue.addr, align 8
  %idx.ext = sext i32 %add to i64
  %add.ptr = getelementptr inbounds %"union.Assimp::MDL::HalfLife::AnimValue_HL1", ptr %9, i64 %idx.ext
  store ptr %add.ptr, ptr %panimvalue.addr, align 8
  br label %while.cond, !llvm.loop !51

while.end:                                        ; preds = %while.cond
  %10 = load ptr, ptr %panimvalue.addr, align 8
  %valid5 = getelementptr inbounds %struct.anon, ptr %10, i32 0, i32 0
  %11 = load i8, ptr %valid5, align 1
  %conv6 = zext i8 %11 to i32
  %12 = load i32, ptr %k, align 4
  %cmp7 = icmp sgt i32 %conv6, %12
  br i1 %cmp7, label %if.then, label %if.else

if.then:                                          ; preds = %while.end
  %13 = load ptr, ptr %panimvalue.addr, align 8
  %14 = load i32, ptr %k, align 4
  %add8 = add nsw i32 %14, 1
  %idxprom = sext i32 %add8 to i64
  %arrayidx = getelementptr inbounds %"union.Assimp::MDL::HalfLife::AnimValue_HL1", ptr %13, i64 %idxprom
  %15 = load i16, ptr %arrayidx, align 1
  %conv9 = sext i16 %15 to i32
  %conv10 = sitofp i32 %conv9 to float
  %16 = load float, ptr %bone_scale.addr, align 4
  %mul = fmul float %conv10, %16
  %17 = load ptr, ptr %value.addr, align 8
  store float %mul, ptr %17, align 4
  br label %if.end

if.else:                                          ; preds = %while.end
  %18 = load ptr, ptr %panimvalue.addr, align 8
  %19 = load ptr, ptr %panimvalue.addr, align 8
  %valid11 = getelementptr inbounds %struct.anon, ptr %19, i32 0, i32 0
  %20 = load i8, ptr %valid11, align 1
  %idxprom12 = zext i8 %20 to i64
  %arrayidx13 = getelementptr inbounds %"union.Assimp::MDL::HalfLife::AnimValue_HL1", ptr %18, i64 %idxprom12
  %21 = load i16, ptr %arrayidx13, align 1
  %conv14 = sext i16 %21 to i32
  %conv15 = sitofp i32 %conv14 to float
  %22 = load float, ptr %bone_scale.addr, align 4
  %mul16 = fmul float %conv15, %22
  %23 = load ptr, ptr %value.addr, align 8
  store float %mul16, ptr %23, align 4
  br label %if.end

if.end:                                           ; preds = %if.else, %if.then
  ret void
}