; Function Attrs: mustprogress nofree norecurse nosync nounwind memory(read, argmem: readwrite, inaccessiblemem: none) uwtable
define hidden void @_ZN6Assimp3MDL8HalfLife12HL1MDLLoader18extract_anim_valueEPKNS1_13AnimValue_HL1EifRf(ptr nocapture noundef nonnull readnone align 8 dereferenceable(256) %this, ptr nocapture noundef readonly %panimvalue, i32 noundef %frame, float noundef %bone_scale, ptr nocapture noundef nonnull writeonly align 4 dereferenceable(4) %value) local_unnamed_addr #10 align 2 {
entry:
  %total13 = getelementptr inbounds i8, ptr %panimvalue, i64 1
  %0 = load i8, ptr %total13, align 1
  %conv14 = zext i8 %0 to i32
  %cmp.not15 = icmp sgt i32 %conv14, %frame
  br i1 %cmp.not15, label %while.end, label %while.body

while.body:                                       ; preds = %entry, %while.body
  %conv18 = phi i32 [ %conv, %while.body ], [ %conv14, %entry ]
  %k.017 = phi i32 [ %sub, %while.body ], [ %frame, %entry ]
  %panimvalue.addr.016 = phi ptr [ %add.ptr, %while.body ], [ %panimvalue, %entry ]
  %sub = sub nsw i32 %k.017, %conv18
  %1 = load i8, ptr %panimvalue.addr.016, align 1
  %conv4 = zext i8 %1 to i64
  %add = add nuw nsw i64 %conv4, 1
  %add.ptr = getelementptr inbounds %"union.Assimp::MDL::HalfLife::AnimValue_HL1", ptr %panimvalue.addr.016, i64 %add
  %total = getelementptr inbounds i8, ptr %add.ptr, i64 1
  %2 = load i8, ptr %total, align 1
  %conv = zext i8 %2 to i32
  %cmp.not = icmp slt i32 %sub, %conv
  br i1 %cmp.not, label %while.end, label %while.body, !llvm.loop !88

while.end:                                        ; preds = %while.body, %entry
  %panimvalue.addr.0.lcssa = phi ptr [ %panimvalue, %entry ], [ %add.ptr, %while.body ]
  %k.0.lcssa = phi i32 [ %frame, %entry ], [ %sub, %while.body ]
  %3 = load i8, ptr %panimvalue.addr.0.lcssa, align 1
  %conv6 = zext i8 %3 to i32
  %cmp7 = icmp slt i32 %k.0.lcssa, %conv6
  %idxprom12 = zext i8 %3 to i64
  %add8 = add nsw i32 %k.0.lcssa, 1
  %idxprom = sext i32 %add8 to i64
  %idxprom12.pn = select i1 %cmp7, i64 %idxprom, i64 %idxprom12
  %conv15.pn.in.in = getelementptr inbounds %"union.Assimp::MDL::HalfLife::AnimValue_HL1", ptr %panimvalue.addr.0.lcssa, i64 %idxprom12.pn
  %conv15.pn.in = load i16, ptr %conv15.pn.in.in, align 1
  %conv15.pn = sitofp i16 %conv15.pn.in to float
  %storemerge = fmul float %conv15.pn, %bone_scale
  store float %storemerge, ptr %value, align 4
  ret void
}